(iDelta.Gas
GasCalcs
p0
(dp1
S'data'
p2
(lp3
(iDelta.Gas
GasCalc
p4
(dp5
S'name'
p6
S'CH4'
p7
sS'xc'
p8
S'rpbe'
p9
sS'energy'
p10
F-228.16762473564947
sS'dw'
p11
S'550550550550550550550550550550'
p12
sS'psp_dict'
p13
(dp14
S'H'
p15
S'bd57da0722753ddfd9833a65b40bb853'
p16
sS'C'
p17
S'ab446d787031eba755f1d5ee46644bb0'
p18
ssS'pw'
p19
S'550'
p20
sba(iDelta.Gas
GasCalc
p21
(dp22
g6
S'H2'
p23
sg8
g9
sg10
F-32.06087183278437
sg11
S'550550550550550550550550550550'
p24
sg13
(dp25
g15
S'bd57da0722753ddfd9833a65b40bb853'
p26
ssg19
g20
sba(iDelta.Gas
GasCalc
p27
(dp28
g6
g7
sg8
S'beef'
p29
sg10
F-231.39558943712595
sg11
S'400400400400400400400400400400'
p30
sg13
(dp31
g15
S'095c7af220d748ca6e76c0b4c6cfb241'
p32
sg17
S'ab446d787031eba755f1d5ee46644bb0'
p33
ssg19
S'400'
p34
sba(iDelta.Gas
GasCalc
p35
(dp36
g6
g23
sg8
g29
sg10
F-32.88327825778431
sg11
S'400400400400400400400400400400'
p37
sg13
(dp38
g15
S'095c7af220d748ca6e76c0b4c6cfb241'
p39
ssg19
g34
sba(iDelta.Gas
GasCalc
p40
(dp41
g6
S'O2'
p42
sg8
g29
sg10
F-920.3076744345145
sg11
S'400400400400400400400400400400'
p43
sg13
(dp44
S'O'
p45
S'095c7af220d748ca6e76c0b4c6cfb241'
p46
ssg19
g34
sba(iDelta.Gas
GasCalc
p47
(dp48
g6
S'H2O'
p49
sg8
g29
sg10
F-495.3182203731096
sg11
S'400400400400400400400400400400'
p50
sg13
(dp51
g15
S'095c7af220d748ca6e76c0b4c6cfb241'
p52
sg45
S'e057bbcf3229fb5d8c36c0c92f9568b4'
p53
ssg19
g34
sba(iDelta.Gas
GasCalc
p54
(dp55
g6
g7
sg8
g29
sg10
F-231.6029559738103
sg11
S'550550550550550550550550550550'
p56
sg13
(dp57
g15
S'095c7af220d748ca6e76c0b4c6cfb241'
p58
sg17
S'ab446d787031eba755f1d5ee46644bb0'
p59
ssg19
g20
sba(iDelta.Gas
GasCalc
p60
(dp61
g6
g23
sg8
g29
sg10
F-32.95535917592788
sg11
S'550550550550550550550550550550'
p62
sg13
(dp63
g15
S'095c7af220d748ca6e76c0b4c6cfb241'
p64
ssg19
g20
sba(iDelta.Gas
GasCalc
p65
(dp66
g6
g42
sg8
g29
sg10
F-922.2223961964839
sg11
S'550550550550550550550550550550'
p67
sg13
(dp68
g45
S'095c7af220d748ca6e76c0b4c6cfb241'
p69
ssg19
g20
sba(iDelta.Gas
GasCalc
p70
(dp71
g6
g49
sg8
g29
sg10
F-496.36643530678384
sg11
S'550550550550550550550550550550'
p72
sg13
(dp73
g15
S'095c7af220d748ca6e76c0b4c6cfb241'
p74
sg45
S'e057bbcf3229fb5d8c36c0c92f9568b4'
p75
ssg19
g20
sba(iDelta.Gas
GasCalc
p76
(dp77
g6
g7
sg8
S'pbe'
p78
sg10
F-227.39044036723644
sg11
S'550550550550550550550550550550'
p79
sg13
(dp80
g15
S'bd57da0722753ddfd9833a65b40bb853'
p81
sg17
S'ab446d787031eba755f1d5ee46644bb0'
p82
ssg19
g20
sba(iDelta.Gas
GasCalc
p83
(dp84
g6
g23
sg8
g78
sg10
F-31.73360023267417
sg11
S'550550550550550550550550550550'
p85
sg13
(dp86
g15
S'bd57da0722753ddfd9833a65b40bb853'
p87
ssg19
g20
sba(iDelta.Gas
GasCalc
p88
(dp89
g6
g49
sg8
g78
sg10
F-490.487790947788
sg11
S'550550550550550550550550550550'
p90
sg13
(dp91
g15
S'bd57da0722753ddfd9833a65b40bb853'
p92
sg45
S'e057bbcf3229fb5d8c36c0c92f9568b4'
p93
ssg19
g20
sba(iDelta.Gas
GasCalc
p94
(dp95
g6
g7
sg8
g9
sg10
F-221.80921073244636
sg11
S'550550550550550550550550550550'
p96
sg13
(dp97
g15
S'761ae9a214b05c3daf00ab9f6b793d6f'
p98
sg17
S'd1aef80898a10debaa0f26306b886e00'
p99
ssg19
g20
sba(iDelta.Gas
GasCalc
p100
(dp101
g6
g23
sg8
g9
sg10
F-32.03171986780953
sg11
S'550550550550550550550550550550'
p102
sg13
(dp103
g15
S'761ae9a214b05c3daf00ab9f6b793d6f'
p104
ssg19
g20
sba(iDelta.Gas
GasCalc
p105
(dp106
g6
g42
sg8
g9
sg10
F-876.0984357354223
sg11
S'550550550550550550550550550550'
p107
sg13
(dp108
g45
S'734c27235a0248c51dbae37a1fbe46ec'
p109
ssg19
g20
sba(iDelta.Gas
GasCalc
p110
(dp111
g6
g49
sg8
g9
sg10
F-472.4653368811674
sg11
S'550550550550550550550550550550'
p112
sg13
(dp113
g15
S'761ae9a214b05c3daf00ab9f6b793d6f'
p114
sg45
S'734c27235a0248c51dbae37a1fbe46ec'
p115
ssg19
g20
sba(iDelta.Gas
GasCalc
p116
(dp117
g6
g7
sg8
g29
sg10
F-224.9044204741917
sg11
S'400400400400400400400400400400'
p118
sg13
(dp119
g15
S'095c7af220d748ca6e76c0b4c6cfb241'
p120
sg17
S'd1aef80898a10debaa0f26306b886e00'
p121
ssg19
g34
sba(iDelta.Gas
GasCalc
p122
(dp123
g6
g23
sg8
g29
sg10
F-32.91824311883353
sg11
S'400400400400400400400400400400'
p124
sg13
(dp125
g15
S'095c7af220d748ca6e76c0b4c6cfb241'
p126
ssg19
g34
sba(iDelta.Gas
GasCalc
p127
(dp128
g6
g42
sg8
g29
sg10
F-882.3445984214727
sg11
S'400400400400400400400400400400'
p129
sg13
(dp130
g45
S'095c7af220d748ca6e76c0b4c6cfb241'
p131
ssg19
g34
sba(iDelta.Gas
GasCalc
p132
(dp133
g6
g7
sg8
g29
sg10
F-224.9151055687593
sg11
S'550550550550550550550550550550'
p134
sg13
(dp135
g15
S'095c7af220d748ca6e76c0b4c6cfb241'
p136
sg17
S'd1aef80898a10debaa0f26306b886e00'
p137
ssg19
g20
sba(iDelta.Gas
GasCalc
p138
(dp139
g6
g23
sg8
g29
sg10
F-32.920071587851965
sg11
S'550550550550550550550550550550'
p140
sg13
(dp141
g15
S'095c7af220d748ca6e76c0b4c6cfb241'
p142
ssg19
g20
sba(iDelta.Gas
GasCalc
p143
(dp144
g6
g42
sg8
g29
sg10
F-882.7041861944398
sg11
S'550550550550550550550550550550'
p145
sg13
(dp146
g45
S'095c7af220d748ca6e76c0b4c6cfb241'
p147
ssg19
g20
sba(iDelta.Gas
GasCalc
p148
(dp149
g6
g49
sg8
g29
sg10
F-476.6273152313126
sg11
S'550550550550550550550550550550'
p150
sg13
(dp151
g15
S'095c7af220d748ca6e76c0b4c6cfb241'
p152
sg45
S'734c27235a0248c51dbae37a1fbe46ec'
p153
ssg19
g20
sba(iDelta.Gas
GasCalc
p154
(dp155
g6
g7
sg8
g78
sg10
F-221.051100320441
sg11
S'550550550550550550550550550550'
p156
sg13
(dp157
g15
S'761ae9a214b05c3daf00ab9f6b793d6f'
p158
sg17
S'd1aef80898a10debaa0f26306b886e00'
p159
ssg19
g20
sba(iDelta.Gas
GasCalc
p160
(dp161
g6
g23
sg8
g78
sg10
F-31.704578610233714
sg11
S'550550550550550550550550550550'
p162
sg13
(dp163
g15
S'761ae9a214b05c3daf00ab9f6b793d6f'
p164
ssg19
g20
sba(iDelta.Gas
GasCalc
p165
(dp166
g6
g49
sg8
g78
sg10
F-471.66552597397146
sg11
S'550550550550550550550550550550'
p167
sg13
(dp168
g15
S'761ae9a214b05c3daf00ab9f6b793d6f'
p169
sg45
S'734c27235a0248c51dbae37a1fbe46ec'
p170
ssg19
g20
sbasb.